target datalayout = "e-m:e-p270:32:32-p271:32:32-p272:64:64-i64:64-i128:128-f80:128-n8:16:32:64-S128"
target triple = "x86_64-pc-linux-gnu"

%struct.gmx_sel_lexer_t = type { ptr, %"class.std::__exception_ptr::exception_ptr", i8, ptr, i32, ptr, %"class.std::__cxx11::basic_string", %"struct.gmx::SelectionLocation", ptr, i32, i32, i32, ptr, i8, ptr, i32, i8, i8, i8, i8, ptr }
%"class.std::__exception_ptr::exception_ptr" = type { ptr }
%"class.std::__cxx11::basic_string" = type { %"struct.std::__cxx11::basic_string<char>::_Alloc_hider", i64, %union.anon }
%"struct.std::__cxx11::basic_string<char>::_Alloc_hider" = type { ptr }
%union.anon = type { i64, [8 x i8] }
%"struct.gmx::SelectionLocation" = type { i32, i32 }

; Function Attrs: mustprogress uwtable
define void @_Z26_gmx_sel_set_lex_input_strPvPKc(ptr noundef %0, ptr noundef %1) #0 {
  %3 = alloca ptr, align 8
  %4 = alloca ptr, align 8
  %5 = alloca ptr, align 8
  store ptr %0, ptr %3, align 8
  store ptr %1, ptr %4, align 8
  %6 = load ptr, ptr %3, align 8
  %7 = call noundef ptr @_Z20_gmx_sel_yyget_extraPv(ptr noundef %6)
  store ptr %7, ptr %5, align 8
  %8 = load ptr, ptr %5, align 8
  %9 = getelementptr inbounds %struct.gmx_sel_lexer_t, ptr %8, i32 0, i32 19
  %10 = load i8, ptr %9, align 1
  %11 = trunc i8 %10 to i1
  br i1 %11, label %12, label %17

12:                                               ; preds = %2
  %13 = load ptr, ptr %5, align 8
  %14 = getelementptr inbounds %struct.gmx_sel_lexer_t, ptr %13, i32 0, i32 20
  %15 = load ptr, ptr %14, align 8
  %16 = load ptr, ptr %3, align 8
  call void @_Z25_gmx_sel_yy_delete_bufferP15yy_buffer_statePv(ptr noundef %15, ptr noundef %16)
  br label %17

17:                                               ; preds = %12, %2
  %18 = load ptr, ptr %5, align 8
  %19 = getelementptr inbounds %struct.gmx_sel_lexer_t, ptr %18, i32 0, i32 19
  store i8 1, ptr %19, align 1
  %20 = load ptr, ptr %4, align 8
  %21 = load ptr, ptr %3, align 8
  %22 = call noundef ptr @_Z23_gmx_sel_yy_scan_stringPKcPv(ptr noundef %20, ptr noundef %21)
  %23 = load ptr, ptr %5, align 8
  %24 = getelementptr inbounds %struct.gmx_sel_lexer_t, ptr %23, i32 0, i32 20
  store ptr %22, ptr %24, align 8
  ret void
}