; Function Attrs: mustprogress uwtable
define void @_Z26_gmx_sel_set_lex_input_strPvPKc(ptr noundef %0, ptr noundef %1) local_unnamed_addr #0 {
  %3 = tail call noundef ptr @_Z20_gmx_sel_yyget_extraPv(ptr noundef %0)
  %4 = getelementptr inbounds i8, ptr %3, i64 143
  %5 = load i8, ptr %4, align 1
  %6 = trunc i8 %5 to i1
  br i1 %6, label %7, label %10

7:                                                ; preds = %2
  %8 = getelementptr inbounds i8, ptr %3, i64 144
  %9 = load ptr, ptr %8, align 8
  tail call void @_Z25_gmx_sel_yy_delete_bufferP15yy_buffer_statePv(ptr noundef %9, ptr noundef %0)
  br label %10

10:                                               ; preds = %7, %2
  store i8 1, ptr %4, align 1
  %11 = tail call noundef ptr @_Z23_gmx_sel_yy_scan_stringPKcPv(ptr noundef %1, ptr noundef %0)
  %12 = getelementptr inbounds i8, ptr %3, i64 144
  store ptr %11, ptr %12, align 8
  ret void
}